; Function Attrs: null_pointer_is_valid sspstrong uwtable
define internal void @dissect_r3_response_singlebyte(ptr noundef %0, i32 noundef %1, i32 %2, ptr readnone captures(none) %3, ptr noundef %4) #0 {
  %.not = icmp eq ptr %4, null
  br i1 %.not, label %13, label %6

6:                                                ; preds = %5
  %7 = load i32, ptr @hf_r3_responsetype, align 4
  %8 = add i32 %1, 2
  %9 = tail call ptr @proto_tree_add_item(ptr noundef nonnull %4, i32 noundef %7, ptr noundef %0, i32 noundef %8, i32 noundef 1, i32 noundef -2147483648)
  %10 = load i32, ptr @hf_r3_responsetocommand, align 4
  %11 = add i32 %1, 3
  %12 = tail call ptr @proto_tree_add_item(ptr noundef nonnull %4, i32 noundef %10, ptr noundef %0, i32 noundef %11, i32 noundef 1, i32 noundef -2147483648)
  br label %13

13:                                               ; preds = %6, %5
  ret void
}